(dp0
S'METTS MARK'
p1
(dp2
S'to_messages'
p3
I807
sS'deferral_payments'
p4
S'NaN'
p5
sS'bonus'
p6
I600000
sS'total_stock_value'
p7
I585062
sS'expenses'
p8
I94299
sS'from_poi_to_this_person'
p9
I38
sS'from_this_person_to_poi'
p10
I1
sS'poi'
p11
I00
sS'deferred_income'
p12
g5
sS'restricted_stock'
p13
I585062
sS'long_term_incentive'
p14
g5
sS'salary'
p15
I365788
sS'total_payments'
p16
I1061827
sS'loan_advances'
p17
g5
sS'restricted_stock_deferred'
p18
g5
sS'shared_receipt_with_poi'
p19
I702
sS'exercised_stock_options'
p20
g5
sS'from_messages'
p21
I29
sS'other'
p22
I1740
sS'to_poi_ratio'
p23
F0.034482758620689655
sS'director_fees'
p24
g5
ssS'BAXTER JOHN C'
p25
(dp26
g3
g5
sg4
I1295738
sg6
I1200000
sg7
I10623258
sg8
I11200
sg9
g5
sg10
g5
sg11
I00
sg12
I-1386055
sg13
I3942714
sg14
I1586055
sg15
I267102
sg16
I5634343
sg17
g5
sg18
g5
sg19
g5
sg20
I6680544
sg21
g5
sg22
I2660303
sg23
S'NaN'
p27
sg24
g5
ssS'ELLIOTT STEVEN'
p28
(dp29
g3
g5
sg4
g5
sg6
I350000
sg7
I6678735
sg8
I78552
sg9
g5
sg10
g5
sg11
I00
sg12
I-400729
sg13
I1788391
sg14
g5
sg15
I170941
sg16
I211725
sg17
g5
sg18
g5
sg19
g5
sg20
I4890344
sg21
g5
sg22
I12961
sg23
g27
sg24
g5
ssS'CORDES WILLIAM R'
p30
(dp31
g3
I764
sg4
g5
sg6
g5
sg7
I1038185
sg8
g5
sg9
I10
sg10
I0
sg11
I00
sg12
g5
sg13
I386335
sg14
g5
sg15
g5
sg16
g5
sg17
g5
sg18
g5
sg19
I58
sg20
I651850
sg21
I12
sg22
g5
sg23
F0.0
sg24
g5
ssS'HANNON KEVIN P'
p32
(dp33
g3
I1045
sg4
g5
sg6
I1500000
sg7
I6391065
sg8
I34039
sg9
I32
sg10
I21
sg11
I01
sg12
I-3117011
sg13
I853064
sg14
I1617011
sg15
I243293
sg16
I288682
sg17
g5
sg18
g5
sg19
I1035
sg20
I5538001
sg21
I32
sg22
I11350
sg23
F0.65625
sg24
g5
ssS'MORDAUNT KRISTINA M'
p34
(dp35
g3
g5
sg4
g5
sg6
I325000
sg7
I208510
sg8
I35018
sg9
g5
sg10
g5
sg11
I00
sg12
g5
sg13
I208510
sg14
g5
sg15
I267093
sg16
I628522
sg17
g5
sg18
g5
sg19
g5
sg20
g5
sg21
g5
sg22
I1411
sg23
g27
sg24
g5
ssS'MEYER ROCKFORD G'
p36
(dp37
g3
I232
sg4
I1848227
sg6
g5
sg7
I955873
sg8
g5
sg9
I0
sg10
I0
sg11
I00
sg12
g5
sg13
I462384
sg14
g5
sg15
g5
sg16
I1848227
sg17
g5
sg18
g5
sg19
I22
sg20
I493489
sg21
I28
sg22
g5
sg23
F0.0
sg24
g5
ssS'MCMAHON JEFFREY'
p38
(dp39
g3
I2355
sg4
g5
sg6
I2600000
sg7
I1662855
sg8
I137108
sg9
I58
sg10
I26
sg11
I00
sg12
g5
sg13
I558801
sg14
I694862
sg15
I370448
sg16
I4099771
sg17
g5
sg18
g5
sg19
I2228
sg20
I1104054
sg21
I48
sg22
I297353
sg23
F0.5416666666666666
sg24
g5
ssS'HORTON STANLEY C'
p40
(dp41
g3
I2350
sg4
I3131860
sg6
g5
sg7
I7256648
sg8
g5
sg9
I44
sg10
I15
sg11
I00
sg12
g5
sg13
I2046079
sg14
g5
sg15
g5
sg16
I3131860
sg17
g5
sg18
g5
sg19
I1074
sg20
I5210569
sg21
I1073
sg22
g5
sg23
F0.013979496738117428
sg24
g5
ssS'PIPER GREGORY F'
p42
(dp43
g3
I1238
sg4
I1130036
sg6
I400000
sg7
I880290
sg8
I43057
sg9
I61
sg10
I48
sg11
I00
sg12
I-33333
sg13
I409554
sg14
g5
sg15
I197091
sg16
I1737629
sg17
g5
sg18
I-409554
sg19
I742
sg20
I880290
sg21
I222
sg22
I778
sg23
F0.21621621621621623
sg24
g5
ssS'HUMPHREY GENE E'
p44
(dp45
g3
I128
sg4
I2964506
sg6
g5
sg7
I2282768
sg8
I4994
sg9
I10
sg10
I17
sg11
I00
sg12
g5
sg13
g5
sg14
g5
sg15
I130724
sg16
I3100224
sg17
g5
sg18
g5
sg19
I119
sg20
I2282768
sg21
I17
sg22
g5
sg23
F1.0
sg24
g5
ssS'UMANOFF ADAM S'
p46
(dp47
g3
I111
sg4
g5
sg6
I788750
sg7
g5
sg8
I53122
sg9
I12
sg10
I0
sg11
I00
sg12
g5
sg13
g5
sg14
g5
sg15
I288589
sg16
I1130461
sg17
g5
sg18
g5
sg19
I41
sg20
g5
sg21
I18
sg22
g5
sg23
F0.0
sg24
g5
ssS'BLACHMAN JEREMY M'
p48
(dp49
g3
I2475
sg4
g5
sg6
I850000
sg7
I954354
sg8
I84208
sg9
I25
sg10
I2
sg11
I00
sg12
g5
sg13
I189041
sg14
I831809
sg15
I248546
sg16
I2014835
sg17
g5
sg18
g5
sg19
I2326
sg20
I765313
sg21
I14
sg22
I272
sg23
F0.14285714285714285
sg24
g5
ssS'SUNDE MARTIN'
p50
(dp51
g3
I2647
sg4
g5
sg6
I700000
sg7
I698920
sg8
g5
sg9
I37
sg10
I13
sg11
I00
sg12
g5
sg13
I698920
sg14
I476451
sg15
I257486
sg16
I1545059
sg17
g5
sg18
g5
sg19
I2565
sg20
g5
sg21
I38
sg22
I111122
sg23
F0.34210526315789475
sg24
g5
ssS'GIBBS DANA R'
p52
(dp53
g3
I169
sg4
I504610
sg6
g5
sg7
I2218275
sg8
g5
sg9
I0
sg10
I0
sg11
I00
sg12
g5
sg13
g5
sg14
I461912
sg15
g5
sg16
I966522
sg17
g5
sg18
g5
sg19
I23
sg20
I2218275
sg21
I12
sg22
g5
sg23
F0.0
sg24
g5
ssS'LOWRY CHARLES P'
p54
(dp55
g3
g5
sg4
g5
sg6
g5
sg7
I372205
sg8
g5
sg9
g5
sg10
g5
sg11
I00
sg12
g5
sg13
I153686
sg14
g5
sg15
g5
sg16
g5
sg17
g5
sg18
I-153686
sg19
g5
sg20
I372205
sg21
g5
sg22
g5
sg23
g27
sg24
g5
ssS'COLWELL WESLEY'
p56
(dp57
g3
I1758
sg4
I27610
sg6
I1200000
sg7
I698242
sg8
I16514
sg9
I240
sg10
I11
sg11
I01
sg12
I-144062
sg13
I698242
sg14
g5
sg15
I288542
sg16
I1490344
sg17
g5
sg18
g5
sg19
I1132
sg20
g5
sg21
I40
sg22
I101740
sg23
F0.275
sg24
g5
ssS'MULLER MARK S'
p58
(dp59
g3
I136
sg4
I842924
sg6
I1100000
sg7
I1416848
sg8
g5
sg9
I12
sg10
I0
sg11
I00
sg12
I-719000
sg13
I360528
sg14
I1725545
sg15
I251654
sg16
I3202070
sg17
g5
sg18
g5
sg19
I114
sg20
I1056320
sg21
I16
sg22
I947
sg23
F0.0
sg24
g5
ssS'JACKSON CHARLENE R'
p60
(dp61
g3
I258
sg4
g5
sg6
I250000
sg7
I725735
sg8
I10181
sg9
I25
sg10
I19
sg11
I00
sg12
g5
sg13
I540672
sg14
g5
sg15
I288558
sg16
I551174
sg17
g5
sg18
g5
sg19
I117
sg20
I185063
sg21
I56
sg22
I2435
sg23
F0.3392857142857143
sg24
g5
ssS'WESTFAHL RICHARD K'
p62
(dp63
g3
g5
sg4
g5
sg6
g5
sg7
I384930
sg8
I51870
sg9
g5
sg10
g5
sg11
I00
sg12
I-10800
sg13
I384930
sg14
I256191
sg15
I63744
sg16
I762135
sg17
g5
sg18
g5
sg19
g5
sg20
g5
sg21
g5
sg22
I401130
sg23
g27
sg24
g5
ssS'WALTERS GARETH W'
p64
(dp65
g3
g5
sg4
I53625
sg6
g5
sg7
I1030329
sg8
I33785
sg9
g5
sg10
g5
sg11
I00
sg12
g5
sg13
g5
sg14
g5
sg15
g5
sg16
I87410
sg17
g5
sg18
g5
sg19
g5
sg20
I1030329
sg21
g5
sg22
g5
sg23
g27
sg24
g5
ssS'WALLS JR ROBERT H'
p66
(dp67
g3
I671
sg4
g5
sg6
I850000
sg7
I5898997
sg8
I50936
sg9
I17
sg10
I0
sg11
I00
sg12
g5
sg13
I1552453
sg14
I540751
sg15
I357091
sg16
I1798780
sg17
g5
sg18
g5
sg19
I215
sg20
I4346544
sg21
I146
sg22
I2
sg23
F0.0
sg24
g5
ssS'KITCHEN LOUISE'
p68
(dp69
g3
I8305
sg4
g5
sg6
I3100000
sg7
I547143
sg8
I5774
sg9
I251
sg10
I194
sg11
I00
sg12
g5
sg13
I466101
sg14
g5
sg15
I271442
sg16
I3471141
sg17
g5
sg18
g5
sg19
I3669
sg20
I81042
sg21
I1728
sg22
I93925
sg23
F0.11226851851851852
sg24
g5
ssS'CHAN RONNIE'
p70
(dp71
g3
g5
sg4
g5
sg6
g5
sg7
g5
sg8
g5
sg9
g5
sg10
g5
sg11
I00
sg12
I-98784
sg13
I32460
sg14
g5
sg15
g5
sg16
g5
sg17
g5
sg18
I-32460
sg19
g5
sg20
g5
sg21
g5
sg22
g5
sg23
g27
sg24
I98784
ssS'BELFER ROBERT'
p72
(dp73
g3
g5
sg4
I-102500
sg6
g5
sg7
I-44093
sg8
g5
sg9
g5
sg10
g5
sg11
I00
sg12
g5
sg13
g5
sg14
g5
sg15
g5
sg16
I102500
sg17
g5
sg18
I44093
sg19
g5
sg20
I3285
sg21
g5
sg22
g5
sg23
g27
sg24
I3285
ssS'SHANKMAN JEFFREY A'
p74
(dp75
g3
I3221
sg4
g5
sg6
I2000000
sg7
I2072035
sg8
I178979
sg9
I94
sg10
I83
sg11
I00
sg12
g5
sg13
I630137
sg14
I554422
sg15
I304110
sg16
I3038702
sg17
g5
sg18
g5
sg19
I1730
sg20
I1441898
sg21
I2681
sg22
I1191
sg23
F0.030958597538232
sg24
g5
ssS'WODRASKA JOHN'
p76
(dp77
g3
g5
sg4
g5
sg6
g5
sg7
g5
sg8
g5
sg9
g5
sg10
g5
sg11
I00
sg12
g5
sg13
g5
sg14
g5
sg15
g5
sg16
I189583
sg17
g5
sg18
g5
sg19
g5
sg20
g5
sg21
g5
sg22
I189583
sg23
g27
sg24
g5
ssS'BERGSIEKER RICHARD P'
p78
(dp79
g3
I383
sg4
g5
sg6
I250000
sg7
I659249
sg8
I59175
sg9
I4
sg10
I0
sg11
I00
sg12
I-485813
sg13
I659249
sg14
I180250
sg15
I187922
sg16
I618850
sg17
g5
sg18
g5
sg19
I233
sg20
g5
sg21
I59
sg22
I427316
sg23
F0.0
sg24
g5
ssS'URQUHART JOHN A'
p80
(dp81
g3
g5
sg4
g5
sg6
g5
sg7
g5
sg8
I228656
sg9
g5
sg10
g5
sg11
I00
sg12
I-36666
sg13
g5
sg14
g5
sg15
g5
sg16
I228656
sg17
g5
sg18
g5
sg19
g5
sg20
g5
sg21
g5
sg22
g5
sg23
g27
sg24
I36666
ssS'BIBI PHILIPPE A'
p82
(dp83
g3
I1607
sg4
g5
sg6
I1000000
sg7
I1843816
sg8
I38559
sg9
I23
sg10
I8
sg11
I00
sg12
g5
sg13
I378082
sg14
I369721
sg15
I213625
sg16
I2047593
sg17
g5
sg18
g5
sg19
I1336
sg20
I1465734
sg21
I40
sg22
I425688
sg23
F0.2
sg24
g5
ssS'RIEKER PAULA H'
p84
(dp85
g3
I1328
sg4
I214678
sg6
I700000
sg7
I1918887
sg8
I33271
sg9
I35
sg10
I48
sg11
I01
sg12
I-100000
sg13
I283649
sg14
g5
sg15
I249201
sg16
I1099100
sg17
g5
sg18
g5
sg19
I1258
sg20
I1635238
sg21
I82
sg22
I1950
sg23
F0.5853658536585366
sg24
g5
ssS'WHALEY DAVID A'
p86
(dp87
g3
g5
sg4
g5
sg6
g5
sg7
I98718
sg8
g5
sg9
g5
sg10
g5
sg11
I00
sg12
g5
sg13
g5
sg14
g5
sg15
g5
sg16
g5
sg17
g5
sg18
g5
sg19
g5
sg20
I98718
sg21
g5
sg22
g5
sg23
g27
sg24
g5
ssS'BECK SALLY W'
p88
(dp89
g3
I7315
sg4
g5
sg6
I700000
sg7
I126027
sg8
I37172
sg9
I144
sg10
I386
sg11
I00
sg12
g5
sg13
I126027
sg14
g5
sg15
I231330
sg16
I969068
sg17
g5
sg18
g5
sg19
I2639
sg20
g5
sg21
I4343
sg22
I566
sg23
F0.08887865530739121
sg24
g5
ssS'HAUG DAVID L'
p90
(dp91
g3
I573
sg4
g5
sg6
g5
sg7
I2217299
sg8
I475
sg9
I4
sg10
I7
sg11
I00
sg12
g5
sg13
I2217299
sg14
g5
sg15
g5
sg16
I475
sg17
g5
sg18
g5
sg19
I471
sg20
g5
sg21
I19
sg22
g5
sg23
F0.3684210526315789
sg24
g5
ssS'ECHOLS JOHN B'
p92
(dp93
g3
g5
sg4
g5
sg6
I200000
sg7
I1008941
sg8
I21530
sg9
g5
sg10
g5
sg11
I00
sg12
g5
sg13
I407503
sg14
I2234774
sg15
I182245
sg16
I2692324
sg17
g5
sg18
g5
sg19
g5
sg20
I601438
sg21
g5
sg22
I53775
sg23
g27
sg24
g5
ssS'MENDELSOHN JOHN'
p94
(dp95
g3
g5
sg4
g5
sg6
g5
sg7
g5
sg8
I148
sg9
g5
sg10
g5
sg11
I00
sg12
I-103750
sg13
g5
sg14
g5
sg15
g5
sg16
I148
sg17
g5
sg18
g5
sg19
g5
sg20
g5
sg21
g5
sg22
g5
sg23
g27
sg24
I103750
ssS'HICKERSON GARY J'
p96
(dp97
g3
I1320
sg4
g5
sg6
I1700000
sg7
I441096
sg8
I98849
sg9
I40
sg10
I1
sg11
I00
sg12
g5
sg13
I441096
sg14
I69223
sg15
I211788
sg16
I2081796
sg17
g5
sg18
g5
sg19
I900
sg20
g5
sg21
I27
sg22
I1936
sg23
F0.037037037037037035
sg24
g5
ssS'CLINE KENNETH W'
p98
(dp99
g3
g5
sg4
g5
sg6
g5
sg7
I189518
sg8
g5
sg9
g5
sg10
g5
sg11
I00
sg12
g5
sg13
I662086
sg14
g5
sg15
g5
sg16
g5
sg17
g5
sg18
I-472568
sg19
g5
sg20
g5
sg21
g5
sg22
g5
sg23
g27
sg24
g5
ssS'LEWIS RICHARD'
p100
(dp101
g3
I952
sg4
g5
sg6
g5
sg7
I850477
sg8
g5
sg9
I10
sg10
I0
sg11
I00
sg12
g5
sg13
g5
sg14
g5
sg15
g5
sg16
g5
sg17
g5
sg18
g5
sg19
I739
sg20
I850477
sg21
I26
sg22
g5
sg23
F0.0
sg24
g5
ssS'HAYES ROBERT E'
p102
(dp103
g3
I504
sg4
I7961
sg6
g5
sg7
I151418
sg8
g5
sg9
I16
sg10
I0
sg11
I00
sg12
g5
sg13
I151418
sg14
g5
sg15
g5
sg16
I7961
sg17
g5
sg18
g5
sg19
I50
sg20
g5
sg21
I12
sg22
g5
sg23
F0.0
sg24
g5
ssS'MCCARTY DANNY J'
p104
(dp105
g3
I1433
sg4
g5
sg6
g5
sg7
I758931
sg8
g5
sg9
I25
sg10
I2
sg11
I00
sg12
g5
sg13
I94556
sg14
g5
sg15
g5
sg16
g5
sg17
g5
sg18
g5
sg19
I508
sg20
I664375
sg21
I215
sg22
g5
sg23
F0.009302325581395349
sg24
g5
ssS'KOPPER MICHAEL J'
p106
(dp107
g3
g5
sg4
g5
sg6
I800000
sg7
I985032
sg8
I118134
sg9
g5
sg10
g5
sg11
I01
sg12
g5
sg13
I985032
sg14
I602671
sg15
I224305
sg16
I2652612
sg17
g5
sg18
g5
sg19
g5
sg20
g5
sg21
g5
sg22
I907502
sg23
g27
sg24
g5
ssS'LEFF DANIEL P'
p108
(dp109
g3
I2822
sg4
g5
sg6
I1000000
sg7
I360528
sg8
g5
sg9
I67
sg10
I14
sg11
I00
sg12
g5
sg13
I360528
sg14
I1387399
sg15
I273746
sg16
I2664228
sg17
g5
sg18
g5
sg19
I2672
sg20
g5
sg21
I63
sg22
I3083
sg23
F0.2222222222222222
sg24
g5
ssS'LAVORATO JOHN J'
p110
(dp111
g3
I7259
sg4
g5
sg6
I8000000
sg7
I5167144
sg8
I49537
sg9
I528
sg10
I411
sg11
I00
sg12
g5
sg13
I1008149
sg14
I2035380
sg15
I339288
sg16
I10425757
sg17
g5
sg18
g5
sg19
I3962
sg20
I4158995
sg21
I2585
sg22
I1552
sg23
F0.15899419729206962
sg24
g5
ssS'BERBERIAN DAVID'
p112
(dp113
g3
g5
sg4
g5
sg6
g5
sg7
I2493616
sg8
I11892
sg9
g5
sg10
g5
sg11
I00
sg12
g5
sg13
I869220
sg14
g5
sg15
I216582
sg16
I228474
sg17
g5
sg18
g5
sg19
g5
sg20
I1624396
sg21
g5
sg22
g5
sg23
g27
sg24
g5
ssS'DETMERING TIMOTHY J'
p114
(dp115
g3
g5
sg4
I875307
sg6
I425000
sg7
I2027865
sg8
I52255
sg9
g5
sg10
g5
sg11
I00
sg12
I-775241
sg13
I315068
sg14
I415657
sg15
I210500
sg16
I1204583
sg17
g5
sg18
I-315068
sg19
g5
sg20
I2027865
sg21
g5
sg22
I1105
sg23
g27
sg24
g5
ssS'WAKEHAM JOHN'
p116
(dp117
g3
g5
sg4
g5
sg6
g5
sg7
g5
sg8
I103773
sg9
g5
sg10
g5
sg11
I00
sg12
g5
sg13
g5
sg14
g5
sg15
g5
sg16
I213071
sg17
g5
sg18
g5
sg19
g5
sg20
g5
sg21
g5
sg22
g5
sg23
g27
sg24
I109298
ssS'POWERS WILLIAM'
p118
(dp119
g3
I653
sg4
g5
sg6
g5
sg7
g5
sg8
g5
sg9
I0
sg10
I0
sg11
I00
sg12
I-17500
sg13
g5
sg14
g5
sg15
g5
sg16
g5
sg17
g5
sg18
g5
sg19
I12
sg20
g5
sg21
I26
sg22
g5
sg23
F0.0
sg24
I17500
ssS'GOLD JOSEPH'
p120
(dp121
g3
g5
sg4
g5
sg6
I750000
sg7
I877611
sg8
g5
sg9
g5
sg10
g5
sg11
I00
sg12
g5
sg13
I441096
sg14
I304805
sg15
I272880
sg16
I2146973
sg17
g5
sg18
g5
sg19
g5
sg20
I436515
sg21
g5
sg22
I819288
sg23
g27
sg24
g5
ssS'BANNANTINE JAMES M'
p122
(dp123
g3
I566
sg4
g5
sg6
g5
sg7
I5243487
sg8
I56301
sg9
I39
sg10
I0
sg11
I00
sg12
I-5104
sg13
I1757552
sg14
g5
sg15
I477
sg16
I916197
sg17
g5
sg18
I-560222
sg19
I465
sg20
I4046157
sg21
I29
sg22
I864523
sg23
F0.0
sg24
g5
ssS'DUNCAN JOHN H'
p124
(dp125
g3
g5
sg4
g5
sg6
g5
sg7
I371750
sg8
g5
sg9
g5
sg10
g5
sg11
I00
sg12
I-25000
sg13
g5
sg14
g5
sg15
g5
sg16
I77492
sg17
g5
sg18
g5
sg19
g5
sg20
I371750
sg21
g5
sg22
g5
sg23
g27
sg24
I102492
ssS'SHAPIRO RICHARD S'
p126
(dp127
g3
I15149
sg4
g5
sg6
I650000
sg7
I987001
sg8
I137767
sg9
I74
sg10
I65
sg11
I00
sg12
g5
sg13
I379164
sg14
g5
sg15
I269076
sg16
I1057548
sg17
g5
sg18
g5
sg19
I4527
sg20
I607837
sg21
I1215
sg22
I705
sg23
F0.053497942386831275
sg24
g5
ssS'SHERRIFF JOHN R'
p128
(dp129
g3
I3187
sg4
g5
sg6
I1500000
sg7
I3128982
sg8
g5
sg9
I28
sg10
I23
sg11
I00
sg12
g5
sg13
I1293424
sg14
I554422
sg15
I428780
sg16
I4335388
sg17
g5
sg18
g5
sg19
I2103
sg20
I1835558
sg21
I92
sg22
I1852186
sg23
F0.25
sg24
g5
ssS'SHELBY REX'
p130
(dp131
g3
I225
sg4
g5
sg6
I200000
sg7
I2493616
sg8
I22884
sg9
I13
sg10
I14
sg11
I01
sg12
I-4167
sg13
I869220
sg14
g5
sg15
I211844
sg16
I2003885
sg17
g5
sg18
g5
sg19
I91
sg20
I1624396
sg21
I39
sg22
I1573324
sg23
F0.358974358974359
sg24
g5
ssS'LEMAISTRE CHARLES'
p132
(dp133
g3
g5
sg4
g5
sg6
g5
sg7
I412878
sg8
g5
sg9
g5
sg10
g5
sg11
I00
sg12
I-25000
sg13
g5
sg14
g5
sg15
g5
sg16
I87492
sg17
g5
sg18
g5
sg19
g5
sg20
I412878
sg21
g5
sg22
g5
sg23
g27
sg24
I112492
ssS'DEFFNER JOSEPH M'
p134
(dp135
g3
I714
sg4
g5
sg6
I600000
sg7
I159211
sg8
I41626
sg9
I115
sg10
I4
sg11
I00
sg12
g5
sg13
I141833
sg14
I335349
sg15
I206121
sg16
I1208649
sg17
g5
sg18
g5
sg19
I552
sg20
I17378
sg21
I74
sg22
I25553
sg23
F0.05405405405405406
sg24
g5
ssS'KISHKILL JOSEPH G'
p136
(dp137
g3
g5
sg4
g5
sg6
g5
sg7
I1034346
sg8
I116335
sg9
g5
sg10
g5
sg11
I00
sg12
I-51042
sg13
I1034346
sg14
g5
sg15
I174246
sg16
I704896
sg17
g5
sg18
g5
sg19
g5
sg20
g5
sg21
g5
sg22
I465357
sg23
g27
sg24
g5
ssS'WHALLEY LAWRENCE G'
p138
(dp139
g3
I6019
sg4
g5
sg6
I3000000
sg7
I6079137
sg8
I57838
sg9
I186
sg10
I24
sg11
I00
sg12
g5
sg13
I2796177
sg14
I808346
sg15
I510364
sg16
I4677574
sg17
g5
sg18
g5
sg19
I3920
sg20
I3282960
sg21
I556
sg22
I301026
sg23
F0.04316546762589928
sg24
g5
ssS'MCCONNELL MICHAEL S'
p140
(dp141
g3
I3329
sg4
g5
sg6
I1100000
sg7
I3101279
sg8
I81364
sg9
I92
sg10
I194
sg11
I00
sg12
g5
sg13
I1478269
sg14
I554422
sg15
I365038
sg16
I2101364
sg17
g5
sg18
g5
sg19
I2189
sg20
I1623010
sg21
I2742
sg22
I540
sg23
F0.07075127644055434
sg24
g5
ssS'PIRO JIM'
p142
(dp143
g3
I58
sg4
g5
sg6
g5
sg7
I47304
sg8
g5
sg9
I0
sg10
I1
sg11
I00
sg12
g5
sg13
I47304
sg14
g5
sg15
g5
sg16
g5
sg17
g5
sg18
g5
sg19
I3
sg20
g5
sg21
I16
sg22
g5
sg23
F0.0625
sg24
g5
ssS'DELAINEY DAVID W'
p144
(dp145
g3
I3093
sg4
g5
sg6
I3000000
sg7
I3614261
sg8
I86174
sg9
I66
sg10
I609
sg11
I01
sg12
g5
sg13
I1323148
sg14
I1294981
sg15
I365163
sg16
I4747979
sg17
g5
sg18
g5
sg19
I2097
sg20
I2291113
sg21
I3069
sg22
I1661
sg23
F0.198435972629521
sg24
g5
ssS'SULLIVAN-SHAKLOVITZ COLLEEN'
p146
(dp147
g3
g5
sg4
I181993
sg6
I100000
sg7
I1362375
sg8
g5
sg9
g5
sg10
g5
sg11
I00
sg12
g5
sg13
g5
sg14
I554422
sg15
I162779
sg16
I999356
sg17
g5
sg18
g5
sg19
g5
sg20
I1362375
sg21
g5
sg22
I162
sg23
g27
sg24
g5
ssS'WROBEL BRUCE'
p148
(dp149
g3
g5
sg4
g5
sg6
g5
sg7
I139130
sg8
g5
sg9
g5
sg10
g5
sg11
I00
sg12
g5
sg13
g5
sg14
g5
sg15
g5
sg16
g5
sg17
g5
sg18
g5
sg19
g5
sg20
I139130
sg21
g5
sg22
g5
sg23
g27
sg24
g5
ssS'LINDHOLM TOD A'
p150
(dp151
g3
g5
sg4
I204075
sg6
I200000
sg7
I3064208
sg8
I57727
sg9
g5
sg10
g5
sg11
I00
sg12
g5
sg13
I514847
sg14
I175000
sg15
I236457
sg16
I875889
sg17
g5
sg18
g5
sg19
g5
sg20
I2549361
sg21
g5
sg22
I2630
sg23
g27
sg24
g5
ssS'MEYER JEROME J'
p152
(dp153
g3
g5
sg4
g5
sg6
g5
sg7
g5
sg8
I2151
sg9
g5
sg10
g5
sg11
I00
sg12
I-38346
sg13
g5
sg14
g5
sg15
g5
sg16
I2151
sg17
g5
sg18
g5
sg19
g5
sg20
g5
sg21
g5
sg22
g5
sg23
g27
sg24
I38346
ssS'LAY KENNETH L'
p154
(dp155
g3
I4273
sg4
I202911
sg6
I7000000
sg7
I49110078
sg8
I99832
sg9
I123
sg10
I16
sg11
I01
sg12
I-300000
sg13
I14761694
sg14
I3600000
sg15
I1072321
sg16
I103559793
sg17
I81525000
sg18
g5
sg19
I2411
sg20
I34348384
sg21
I36
sg22
I10359729
sg23
F0.4444444444444444
sg24
g5
ssS'BUTTS ROBERT H'
p156
(dp157
g3
g5
sg4
g5
sg6
I750000
sg7
I417619
sg8
I9410
sg9
g5
sg10
g5
sg11
I00
sg12
I-75000
sg13
I417619
sg14
I175000
sg15
I261516
sg16
I1271582
sg17
g5
sg18
g5
sg19
g5
sg20
g5
sg21
g5
sg22
I150656
sg23
g27
sg24
g5
ssS'OLSON CINDY K'
p158
(dp159
g3
I1184
sg4
I77716
sg6
I750000
sg7
I2606763
sg8
I63791
sg9
I20
sg10
I15
sg11
I00
sg12
g5
sg13
I969729
sg14
I100000
sg15
I329078
sg16
I1321557
sg17
g5
sg18
g5
sg19
I856
sg20
I1637034
sg21
I52
sg22
I972
sg23
F0.28846153846153844
sg24
g5
ssS'MCDONALD REBECCA'
p160
(dp161
g3
I894
sg4
g5
sg6
g5
sg7
I1691366
sg8
g5
sg9
I54
sg10
I1
sg11
I00
sg12
g5
sg13
I934065
sg14
g5
sg15
g5
sg16
g5
sg17
g5
sg18
g5
sg19
I720
sg20
I757301
sg21
I13
sg22
g5
sg23
F0.07692307692307693
sg24
g5
ssS'CUMBERLAND MICHAEL S'
p162
(dp163
g3
g5
sg4
g5
sg6
I325000
sg7
I207940
sg8
I22344
sg9
g5
sg10
g5
sg11
I00
sg12
g5
sg13
I207940
sg14
I275000
sg15
I184899
sg16
I807956
sg17
g5
sg18
g5
sg19
g5
sg20
g5
sg21
g5
sg22
I713
sg23
g27
sg24
g5
ssS'GAHN ROBERT S'
p164
(dp165
g3
g5
sg4
I73122
sg6
I509870
sg7
I318607
sg8
I50080
sg9
g5
sg10
g5
sg11
I00
sg12
I-1042
sg13
I235370
sg14
g5
sg15
I192008
sg16
I900585
sg17
g5
sg18
g5
sg19
g5
sg20
I83237
sg21
g5
sg22
I76547
sg23
g27
sg24
g5
ssS'MCCLELLAN GEORGE'
p166
(dp167
g3
I1744
sg4
g5
sg6
I900000
sg7
I947861
sg8
I228763
sg9
I52
sg10
I0
sg11
I00
sg12
I-125000
sg13
I441096
sg14
g5
sg15
I263413
sg16
I1318763
sg17
g5
sg18
g5
sg19
I1469
sg20
I506765
sg21
I49
sg22
I51587
sg23
F0.0
sg24
g5
ssS'HERMANN ROBERT J'
p168
(dp169
g3
g5
sg4
g5
sg6
I700000
sg7
I668132
sg8
I48357
sg9
g5
sg10
g5
sg11
I00
sg12
I-280000
sg13
I480632
sg14
I150000
sg15
I262663
sg16
I1297461
sg17
g5
sg18
g5
sg19
g5
sg20
I187500
sg21
g5
sg22
I416441
sg23
g27
sg24
g5
ssS'SCRIMSHAW MATTHEW'
p170
(dp171
g3
g5
sg4
g5
sg6
g5
sg7
I759557
sg8
g5
sg9
g5
sg10
g5
sg11
I00
sg12
g5
sg13
g5
sg14
g5
sg15
g5
sg16
g5
sg17
g5
sg18
g5
sg19
g5
sg20
I759557
sg21
g5
sg22
g5
sg23
g27
sg24
g5
ssS'GATHMANN WILLIAM D'
p172
(dp173
g3
g5
sg4
g5
sg6
g5
sg7
I1945360
sg8
g5
sg9
g5
sg10
g5
sg11
I00
sg12
g5
sg13
I264013
sg14
g5
sg15
g5
sg16
g5
sg17
g5
sg18
I-72419
sg19
g5
sg20
I1753766
sg21
g5
sg22
g5
sg23
g27
sg24
g5
ssS'HAEDICKE MARK E'
p174
(dp175
g3
I4009
sg4
I2157527
sg6
I1150000
sg7
I803094
sg8
I76169
sg9
I180
sg10
I61
sg11
I00
sg12
I-934484
sg13
I524169
sg14
I983346
sg15
I374125
sg16
I3859065
sg17
g5
sg18
I-329825
sg19
I1847
sg20
I608750
sg21
I1941
sg22
I52382
sg23
F0.03142709943328181
sg24
g5
ssS'BOWEN JR RAYMOND M'
p176
(dp177
g3
I1858
sg4
g5
sg6
I1350000
sg7
I252055
sg8
I65907
sg9
I140
sg10
I15
sg11
I01
sg12
I-833
sg13
I252055
sg14
I974293
sg15
I278601
sg16
I2669589
sg17
g5
sg18
g5
sg19
I1593
sg20
g5
sg21
I27
sg22
I1621
sg23
F0.5555555555555556
sg24
g5
ssS'GILLIS JOHN'
p178
(dp179
g3
g5
sg4
g5
sg6
g5
sg7
I85641
sg8
g5
sg9
g5
sg10
g5
sg11
I00
sg12
g5
sg13
I75838
sg14
g5
sg15
g5
sg16
g5
sg17
g5
sg18
g5
sg19
g5
sg20
I9803
sg21
g5
sg22
g5
sg23
g27
sg24
g5
ssS'FITZGERALD JAY L'
p180
(dp181
g3
I936
sg4
g5
sg6
I350000
sg7
I1621236
sg8
I23870
sg9
I1
sg10
I8
sg11
I00
sg12
g5
sg13
I956775
sg14
I556416
sg15
I199157
sg16
I1414857
sg17
g5
sg18
g5
sg19
I723
sg20
I664461
sg21
I16
sg22
I285414
sg23
F0.5
sg24
g5
ssS'MORAN MICHAEL P'
p182
(dp183
g3
I672
sg4
g5
sg6
g5
sg7
I221141
sg8
g5
sg9
I0
sg10
I0
sg11
I00
sg12
g5
sg13
I161602
sg14
g5
sg15
g5
sg16
g5
sg17
g5
sg18
g5
sg19
I127
sg20
I59539
sg21
I19
sg22
g5
sg23
F0.0
sg24
g5
ssS'REDMOND BRIAN L'
p184
(dp185
g3
I1671
sg4
g5
sg6
g5
sg7
I7890324
sg8
I14689
sg9
I204
sg10
I49
sg11
I00
sg12
g5
sg13
I381285
sg14
g5
sg15
I96840
sg16
I111529
sg17
g5
sg18
g5
sg19
I1063
sg20
I7509039
sg21
I221
sg22
g5
sg23
F0.22171945701357465
sg24
g5
ssS'BAZELIDES PHILIP J'
p186
(dp187
g3
g5
sg4
I684694
sg6
g5
sg7
I1599641
sg8
g5
sg9
g5
sg10
g5
sg11
I00
sg12
g5
sg13
g5
sg14
I93750
sg15
I80818
sg16
I860136
sg17
g5
sg18
g5
sg19
g5
sg20
I1599641
sg21
g5
sg22
I874
sg23
g27
sg24
g5
ssS'BELDEN TIMOTHY N'
p188
(dp189
g3
I7991
sg4
I2144013
sg6
I5249999
sg7
I1110705
sg8
I17355
sg9
I228
sg10
I108
sg11
I01
sg12
I-2334434
sg13
I157569
sg14
g5
sg15
I213999
sg16
I5501630
sg17
g5
sg18
g5
sg19
I5521
sg20
I953136
sg21
I484
sg22
I210698
sg23
F0.2231404958677686
sg24
g5
ssS'DURAN WILLIAM D'
p190
(dp191
g3
I904
sg4
g5
sg6
I750000
sg7
I1640910
sg8
I25785
sg9
I106
sg10
I3
sg11
I00
sg12
g5
sg13
I189041
sg14
I1105218
sg15
I210692
sg16
I2093263
sg17
g5
sg18
g5
sg19
I599
sg20
I1451869
sg21
I12
sg22
I1568
sg23
F0.25
sg24
g5
ssS'THORN TERENCE H'
p192
(dp193
g3
I266
sg4
I16586
sg6
g5
sg7
I4817796
sg8
I46145
sg9
I0
sg10
I0
sg11
I00
sg12
g5
sg13
I365320
sg14
I200000
sg15
I222093
sg16
I911453
sg17
g5
sg18
g5
sg19
I73
sg20
I4452476
sg21
I41
sg22
I426629
sg23
F0.0
sg24
g5
ssS'FASTOW ANDREW S'
p194
(dp195
g3
g5
sg4
g5
sg6
I1300000
sg7
I1794412
sg8
I55921
sg9
g5
sg10
g5
sg11
I01
sg12
I-1386055
sg13
I1794412
sg14
I1736055
sg15
I440698
sg16
I2424083
sg17
g5
sg18
g5
sg19
g5
sg20
g5
sg21
g5
sg22
I277464
sg23
g27
sg24
g5
ssS'FOY JOE'
p196
(dp197
g3
I57
sg4
I181755
sg6
g5
sg7
I343434
sg8
g5
sg9
I0
sg10
I0
sg11
I00
sg12
g5
sg13
g5
sg14
g5
sg15
g5
sg16
I181755
sg17
g5
sg18
g5
sg19
I2
sg20
I343434
sg21
I13
sg22
g5
sg23
F0.0
sg24
g5
ssS'CALGER CHRISTOPHER F'
p198
(dp199
g3
I2598
sg4
g5
sg6
I1250000
sg7
I126027
sg8
I35818
sg9
I199
sg10
I25
sg11
I01
sg12
I-262500
sg13
I126027
sg14
I375304
sg15
I240189
sg16
I1639297
sg17
g5
sg18
g5
sg19
I2188
sg20
g5
sg21
I144
sg22
I486
sg23
F0.1736111111111111
sg24
g5
ssS'RICE KENNETH D'
p200
(dp201
g3
I905
sg4
g5
sg6
I1750000
sg7
I22542539
sg8
I46950
sg9
I42
sg10
I4
sg11
I01
sg12
I-3504386
sg13
I2748364
sg14
I1617011
sg15
I420636
sg16
I505050
sg17
g5
sg18
g5
sg19
I864
sg20
I19794175
sg21
I18
sg22
I174839
sg23
F0.2222222222222222
sg24
g5
ssS'KAMINSKI WINCENTY J'
p202
(dp203
g3
I4607
sg4
g5
sg6
I400000
sg7
I976037
sg8
I83585
sg9
I41
sg10
I171
sg11
I00
sg12
g5
sg13
I126027
sg14
I323466
sg15
I275101
sg16
I1086821
sg17
g5
sg18
g5
sg19
I583
sg20
I850010
sg21
I14368
sg22
I4669
sg23
F0.011901447661469933
sg24
g5
ssS'COX DAVID'
p204
(dp205
g3
I102
sg4
g5
sg6
I800000
sg7
I495633
sg8
I27861
sg9
I0
sg10
I4
sg11
I00
sg12
I-41250
sg13
I378082
sg14
g5
sg15
I314288
sg16
I1101393
sg17
g5
sg18
g5
sg19
I71
sg20
I117551
sg21
I33
sg22
I494
sg23
F0.12121212121212122
sg24
g5
ssS'OVERDYKE JR JERE C'
p206
(dp207
g3
g5
sg4
g5
sg6
g5
sg7
I7307594
sg8
I18834
sg9
g5
sg10
g5
sg11
I00
sg12
g5
sg13
I2041016
sg14
I135836
sg15
I94941
sg16
I249787
sg17
g5
sg18
g5
sg19
g5
sg20
I5266578
sg21
g5
sg22
I176
sg23
g27
sg24
g5
ssS'PEREIRA PAULO V. FERRAZ'
p208
(dp209
g3
g5
sg4
g5
sg6
g5
sg7
g5
sg8
I27942
sg9
g5
sg10
g5
sg11
I00
sg12
I-101250
sg13
g5
sg14
g5
sg15
g5
sg16
I27942
sg17
g5
sg18
g5
sg19
g5
sg20
g5
sg21
g5
sg22
g5
sg23
g27
sg24
I101250
ssS'STABLER FRANK'
p210
(dp211
g3
g5
sg4
g5
sg6
I500000
sg7
I511734
sg8
I16514
sg9
g5
sg10
g5
sg11
I00
sg12
g5
sg13
I511734
sg14
g5
sg15
I239502
sg16
I1112087
sg17
g5
sg18
g5
sg19
g5
sg20
g5
sg21
g5
sg22
I356071
sg23
g27
sg24
g5
ssS'SKILLING JEFFREY K'
p212
(dp213
g3
I3627
sg4
g5
sg6
I5600000
sg7
I26093672
sg8
I29336
sg9
I88
sg10
I30
sg11
I01
sg12
g5
sg13
I6843672
sg14
I1920000
sg15
I1111258
sg16
I8682716
sg17
g5
sg18
g5
sg19
I2042
sg20
I19250000
sg21
I108
sg22
I22122
sg23
F0.2777777777777778
sg24
g5
ssS'BLAKE JR. NORMAN P'
p214
(dp215
g3
g5
sg4
g5
sg6
g5
sg7
g5
sg8
I1279
sg9
g5
sg10
g5
sg11
I00
sg12
I-113784
sg13
g5
sg14
g5
sg15
g5
sg16
I1279
sg17
g5
sg18
g5
sg19
g5
sg20
g5
sg21
g5
sg22
g5
sg23
g27
sg24
I113784
ssS'SHERRICK JEFFREY B'
p216
(dp217
g3
I613
sg4
g5
sg6
g5
sg7
I1832468
sg8
g5
sg9
I39
sg10
I18
sg11
I00
sg12
g5
sg13
I405999
sg14
g5
sg15
g5
sg16
g5
sg17
g5
sg18
g5
sg19
I583
sg20
I1426469
sg21
I25
sg22
g5
sg23
F0.72
sg24
g5
ssS'PRENTICE JAMES'
p218
(dp219
g3
g5
sg4
I564348
sg6
g5
sg7
I1095040
sg8
g5
sg9
g5
sg10
g5
sg11
I00
sg12
g5
sg13
I208809
sg14
g5
sg15
g5
sg16
I564348
sg17
g5
sg18
g5
sg19
g5
sg20
I886231
sg21
g5
sg22
g5
sg23
g27
sg24
g5
ssS'GRAY RODNEY'
p220
(dp221
g3
g5
sg4
I93585
sg6
g5
sg7
g5
sg8
g5
sg9
g5
sg10
g5
sg11
I00
sg12
g5
sg13
g5
sg14
I365625
sg15
I6615
sg16
I1146658
sg17
g5
sg18
g5
sg19
g5
sg20
g5
sg21
g5
sg22
I680833
sg23
g27
sg24
g5
ssS'PICKERING MARK R'
p222
(dp223
g3
I898
sg4
g5
sg6
I300000
sg7
I28798
sg8
I31653
sg9
I7
sg10
I0
sg11
I00
sg12
g5
sg13
g5
sg14
g5
sg15
I655037
sg16
I1386690
sg17
I400000
sg18
g5
sg19
I728
sg20
I28798
sg21
I67
sg22
g5
sg23
F0.0
sg24
g5
ssS'NOLES JAMES L'
p224
(dp225
g3
g5
sg4
I774401
sg6
g5
sg7
I368705
sg8
g5
sg9
g5
sg10
g5
sg11
I00
sg12
g5
sg13
I463261
sg14
g5
sg15
g5
sg16
I774401
sg17
g5
sg18
I-94556
sg19
g5
sg20
g5
sg21
g5
sg22
g5
sg23
g27
sg24
g5
ssS'KEAN STEVEN J'
p226
(dp227
g3
I12754
sg4
g5
sg6
I1000000
sg7
I6153642
sg8
I41953
sg9
I140
sg10
I387
sg11
I00
sg12
g5
sg13
I4131594
sg14
I300000
sg15
I404338
sg16
I1747522
sg17
g5
sg18
g5
sg19
I3639
sg20
I2022048
sg21
I6759
sg22
I1231
sg23
F0.05725699067909454
sg24
g5
ssS'FOWLER PEGGY'
p228
(dp229
g3
I517
sg4
g5
sg6
g5
sg7
I1884748
sg8
g5
sg9
I0
sg10
I0
sg11
I00
sg12
g5
sg13
I560170
sg14
g5
sg15
g5
sg16
g5
sg17
g5
sg18
g5
sg19
I10
sg20
I1324578
sg21
I36
sg22
g5
sg23
F0.0
sg24
g5
ssS'WASAFF GEORGE'
p230
(dp231
g3
I400
sg4
I831299
sg6
I325000
sg7
I2056427
sg8
g5
sg9
I22
sg10
I7
sg11
I00
sg12
I-583325
sg13
I388167
sg14
I200000
sg15
I259996
sg16
I1034395
sg17
g5
sg18
g5
sg19
I337
sg20
I1668260
sg21
I30
sg22
I1425
sg23
F0.23333333333333334
sg24
g5
ssS'WHITE JR THOMAS E'
p232
(dp233
g3
g5
sg4
g5
sg6
I450000
sg7
I15144123
sg8
I81353
sg9
g5
sg10
g5
sg11
I00
sg12
g5
sg13
I13847074
sg14
g5
sg15
I317543
sg16
I1934359
sg17
g5
sg18
g5
sg19
g5
sg20
I1297049
sg21
g5
sg22
I1085463
sg23
g27
sg24
g5
ssS'CHRISTODOULOU DIOMEDES'
p234
(dp235
g3
g5
sg4
g5
sg6
g5
sg7
I6077885
sg8
g5
sg9
g5
sg10
g5
sg11
I00
sg12
g5
sg13
I950730
sg14
g5
sg15
g5
sg16
g5
sg17
g5
sg18
g5
sg19
g5
sg20
I5127155
sg21
g5
sg22
g5
sg23
g27
sg24
g5
ssS'ALLEN PHILLIP K'
p236
(dp237
g3
I2902
sg4
I2869717
sg6
I4175000
sg7
I1729541
sg8
I13868
sg9
I47
sg10
I65
sg11
I00
sg12
I-3081055
sg13
I126027
sg14
I304805
sg15
I201955
sg16
I4484442
sg17
g5
sg18
I-126027
sg19
I1407
sg20
I1729541
sg21
I2195
sg22
I152
sg23
F0.029612756264236904
sg24
g5
ssS'SHARP VICTORIA T'
p238
(dp239
g3
I3136
sg4
I187469
sg6
I600000
sg7
I494136
sg8
I116337
sg9
I24
sg10
I6
sg11
I00
sg12
g5
sg13
I213063
sg14
I422158
sg15
I248146
sg16
I1576511
sg17
g5
sg18
g5
sg19
I2477
sg20
I281073
sg21
I136
sg22
I2401
sg23
F0.04411764705882353
sg24
g5
ssS'JAEDICKE ROBERT'
p240
(dp241
g3
g5
sg4
g5
sg6
g5
sg7
I431750
sg8
g5
sg9
g5
sg10
g5
sg11
I00
sg12
I-25000
sg13
I44093
sg14
g5
sg15
g5
sg16
I83750
sg17
g5
sg18
I-44093
sg19
g5
sg20
I431750
sg21
g5
sg22
g5
sg23
g27
sg24
I108750
ssS'WINOKUR JR. HERBERT S'
p242
(dp243
g3
g5
sg4
g5
sg6
g5
sg7
g5
sg8
I1413
sg9
g5
sg10
g5
sg11
I00
sg12
I-25000
sg13
g5
sg14
g5
sg15
g5
sg16
I84992
sg17
g5
sg18
g5
sg19
g5
sg20
g5
sg21
g5
sg22
g5
sg23
g27
sg24
I108579
ssS'BROWN MICHAEL'
p244
(dp245
g3
I1486
sg4
g5
sg6
g5
sg7
g5
sg8
I49288
sg9
I13
sg10
I1
sg11
I00
sg12
g5
sg13
g5
sg14
g5
sg15
g5
sg16
I49288
sg17
g5
sg18
g5
sg19
I761
sg20
g5
sg21
I41
sg22
g5
sg23
F0.024390243902439025
sg24
g5
ssS'BADUM JAMES P'
p246
(dp247
g3
g5
sg4
I178980
sg6
g5
sg7
I257817
sg8
I3486
sg9
g5
sg10
g5
sg11
I00
sg12
g5
sg13
g5
sg14
g5
sg15
g5
sg16
I182466
sg17
g5
sg18
g5
sg19
g5
sg20
I257817
sg21
g5
sg22
g5
sg23
g27
sg24
g5
ssS'HUGHES JAMES A'
p248
(dp249
g3
I719
sg4
g5
sg6
g5
sg7
I1118394
sg8
g5
sg9
I35
sg10
I5
sg11
I00
sg12
g5
sg13
I363428
sg14
g5
sg15
g5
sg16
g5
sg17
g5
sg18
g5
sg19
I589
sg20
I754966
sg21
I34
sg22
g5
sg23
F0.14705882352941177
sg24
g5
ssS'REYNOLDS LAWRENCE'
p250
(dp251
g3
g5
sg4
I51365
sg6
I100000
sg7
I4221891
sg8
I8409
sg9
g5
sg10
g5
sg11
I00
sg12
I-200000
sg13
I201483
sg14
I156250
sg15
I76399
sg16
I394475
sg17
g5
sg18
I-140264
sg19
g5
sg20
I4160672
sg21
g5
sg22
I202052
sg23
g27
sg24
g5
ssS'DIMICHELE RICHARD G'
p252
(dp253
g3
g5
sg4
g5
sg6
I1000000
sg7
I8317782
sg8
I35812
sg9
g5
sg10
g5
sg11
I00
sg12
g5
sg13
I126027
sg14
I694862
sg15
I262788
sg16
I2368151
sg17
g5
sg18
g5
sg19
g5
sg20
I8191755
sg21
g5
sg22
I374689
sg23
g27
sg24
g5
ssS'BHATNAGAR SANJAY'
p254
(dp255
g3
I523
sg4
g5
sg6
g5
sS'total_stock_value'
p256
S'NaN'
p257
sg8
g5
sg9
I0
sg10
I1
sg11
I00
sg12
g5
sg13
I-2604490
sg14
g5
sg15
g5
sg16
I15456290
sg17
g5
sg18
I15456290
sg19
I463
sg20
I2604490
sg21
I29
sg22
I137864
sg23
F0.034482758620689655
sg24
I137864
ssS'CARTER REBECCA C'
p258
(dp259
g3
I312
sg4
g5
sg6
I300000
sg7
g5
sg8
g5
sg9
I29
sg10
I7
sg11
I00
sg12
I-159792
sg13
I307301
sg14
I75000
sg15
I261809
sg16
I477557
sg17
g5
sg18
I-307301
sg19
I196
sg20
g5
sg21
I15
sg22
I540
sg23
F0.4666666666666667
sg24
g5
ssS'BUCHANAN HAROLD G'
p260
(dp261
g3
I1088
sg4
g5
sg6
I500000
sg7
I1014505
sg8
I600
sg9
I0
sg10
I0
sg11
I00
sg12
g5
sg13
I189041
sg14
I304805
sg15
I248017
sg16
I1054637
sg17
g5
sg18
g5
sg19
I23
sg20
I825464
sg21
I125
sg22
I1215
sg23
F0.0
sg24
g5
ssS'YEAP SOON'
p262
(dp263
g3
g5
sg4
g5
sg6
g5
sg7
I192758
sg8
I55097
sg9
g5
sg10
g5
sg11
I00
sg12
g5
sg13
g5
sg14
g5
sg15
g5
sg16
I55097
sg17
g5
sg18
g5
sg19
g5
sg20
I192758
sg21
g5
sg22
g5
sg23
g27
sg24
g5
ssS'MURRAY JULIA H'
p264
(dp265
g3
I2192
sg4
g5
sg6
I400000
sg7
I597461
sg8
I57580
sg9
I11
sg10
I2
sg11
I00
sg12
g5
sg13
I196983
sg14
I125000
sg15
I229284
sg16
I812194
sg17
g5
sg18
g5
sg19
I395
sg20
I400478
sg21
I45
sg22
I330
sg23
F0.044444444444444446
sg24
g5
ssS'GARLAND C KEVIN'
p266
(dp267
g3
I209
sg4
g5
sg6
I850000
sg7
I896153
sg8
I48405
sg9
I10
sg10
I27
sg11
I00
sg12
g5
sg13
I259907
sg14
I375304
sg15
I231946
sg16
I1566469
sg17
g5
sg18
g5
sg19
I178
sg20
I636246
sg21
I44
sg22
I60814
sg23
F0.6136363636363636
sg24
g5
ssS'DODSON KEITH'
p268
(dp269
g3
I176
sg4
g5
sg6
I70000
sg7
g5
sg8
I28164
sg9
I10
sg10
I3
sg11
I00
sg12
g5
sg13
g5
sg14
g5
sg15
I221003
sg16
I319941
sg17
g5
sg18
g5
sg19
I114
sg20
g5
sg21
I14
sg22
I774
sg23
F0.21428571428571427
sg24
g5
ssS'YEAGER F SCOTT'
p270
(dp271
g3
g5
sg4
g5
sg6
g5
sg7
I11884758
sg8
I53947
sg9
g5
sg10
g5
sg11
I01
sg12
g5
sg13
I3576206
sg14
g5
sg15
I158403
sg16
I360300
sg17
g5
sg18
g5
sg19
g5
sg20
I8308552
sg21
g5
sg22
I147950
sg23
g27
sg24
g5
ssS'HIRKO JOSEPH'
p272
(dp273
g3
g5
sg4
I10259
sg6
g5
sg7
I30766064
sg8
I77978
sg9
g5
sg10
g5
sg11
I01
sg12
g5
sg13
g5
sg14
g5
sg15
g5
sg16
I91093
sg17
g5
sg18
g5
sg19
g5
sg20
I30766064
sg21
g5
sg22
I2856
sg23
g27
sg24
g5
ssS'DIETRICH JANET R'
p274
(dp275
g3
I2572
sg4
g5
sg6
I600000
sg7
I1865087
sg8
I3475
sg9
I305
sg10
I14
sg11
I00
sg12
g5
sg13
I315068
sg14
I556416
sg15
I250100
sg16
I1410464
sg17
g5
sg18
g5
sg19
I1902
sg20
I1550019
sg21
I63
sg22
I473
sg23
F0.2222222222222222
sg24
g5
ssS'DERRICK JR. JAMES V'
p276
(dp277
g3
I2181
sg4
g5
sg6
I800000
sg7
I8831913
sg8
I51124
sg9
I64
sg10
I20
sg11
I00
sg12
I-1284000
sg13
I1787380
sg14
I484000
sg15
I492375
sg16
I550981
sg17
g5
sg18
I-1787380
sg19
I1401
sg20
I8831913
sg21
I909
sg22
I7482
sg23
F0.022002200220022004
sg24
g5
ssS'FREVERT MARK A'
p278
(dp279
g3
I3275
sg4
I6426990
sg6
I2000000
sg7
I14622185
sg8
I86987
sg9
I242
sg10
I6
sg11
I00
sg12
I-3367011
sg13
I4188667
sg14
I1617011
sg15
I1060932
sg16
I17252530
sg17
I2000000
sg18
g5
sg19
I2979
sg20
I10433518
sg21
I21
sg22
I7427621
sg23
F0.2857142857142857
sg24
g5
ssS'PAI LOU L'
p280
(dp281
g3
g5
sg4
g5
sg6
I1000000
sg7
I23817930
sg8
I32047
sg9
g5
sg10
g5
sg11
I00
sg12
g5
sg13
I8453763
sg14
g5
sg15
I261879
sg16
I3123383
sg17
g5
sg18
g5
sg19
g5
sg20
I15364167
sg21
g5
sg22
I1829457
sg23
g27
sg24
g5
ssS'BAY FRANKLIN R'
p282
(dp283
g3
g5
sg4
I260455
sg6
I400000
sg7
I63014
sg8
I129142
sg9
g5
sg10
g5
sg11
I00
sg12
I-201641
sg13
I145796
sg14
g5
sg15
I239671
sg16
I827696
sg17
g5
sg18
I-82782
sg19
g5
sg20
g5
sg21
g5
sg22
I69
sg23
g27
sg24
g5
ssS'HAYSLETT RODERICK J'
p284
(dp285
g3
I2649
sg4
g5
sg6
g5
sg7
I346663
sg8
g5
sg9
I35
sg10
I38
sg11
I00
sg12
g5
sg13
I346663
sg14
g5
sg15
g5
sg16
g5
sg17
g5
sg18
g5
sg19
I571
sg20
g5
sg21
I1061
sg22
g5
sg23
F0.03581526861451461
sg24
g5
ssS'FUGH JOHN L'
p286
(dp287
g3
g5
sg4
I50591
sg6
g5
sg7
I176378
sg8
g5
sg9
g5
sg10
g5
sg11
I00
sg12
g5
sg13
g5
sg14
g5
sg15
g5
sg16
I50591
sg17
g5
sg18
g5
sg19
g5
sg20
I176378
sg21
g5
sg22
g5
sg23
g27
sg24
g5
ssS'FALLON JAMES B'
p288
(dp289
g3
I1755
sg4
g5
sg6
I2500000
sg7
I2332399
sg8
I95924
sg9
I42
sg10
I37
sg11
I00
sg12
g5
sg13
I1392142
sg14
I374347
sg15
I304588
sg16
I3676340
sg17
g5
sg18
g5
sg19
I1604
sg20
I940257
sg21
I75
sg22
I401481
sg23
F0.49333333333333335
sg24
g5
ssS'KOENIG MARK E'
p290
(dp291
g3
I2374
sg4
g5
sg6
I700000
sg7
I1920055
sg8
I127017
sg9
I53
sg10
I15
sg11
I01
sg12
g5
sg13
I1248318
sg14
I300000
sg15
I309946
sg16
I1587421
sg17
g5
sg18
g5
sg19
I2271
sg20
I671737
sg21
I61
sg22
I150458
sg23
F0.2459016393442623
sg24
g5
ssS'SAVAGE FRANK'
p292
(dp293
g3
g5
sg4
g5
sg6
g5
sg7
g5
sg8
g5
sg9
g5
sg10
g5
sg11
I00
sg12
I-121284
sg13
g5
sg14
g5
sg15
g5
sg16
I3750
sg17
g5
sg18
g5
sg19
g5
sg20
g5
sg21
g5
sg22
g5
sg23
g27
sg24
I125034
ssS'IZZO LAWRENCE L'
p294
(dp295
g3
I496
sg4
g5
sg6
g5
sg7
I5819980
sg8
I28093
sg9
I28
sg10
I5
sg11
I00
sg12
g5
sg13
I3654808
sg14
I312500
sg15
I85274
sg16
I1979596
sg17
g5
sg18
g5
sg19
I437
sg20
I2165172
sg21
I19
sg22
I1553729
sg23
F0.2631578947368421
sg24
g5
ssS'TILNEY ELIZABETH A'
p296
(dp297
g3
I460
sg4
g5
sg6
I300000
sg7
I1168042
sg8
g5
sg9
I10
sg10
I11
sg11
I00
sg12
I-575000
sg13
I576792
sg14
I275000
sg15
I247338
sg16
I399393
sg17
g5
sg18
g5
sg19
I379
sg20
I591250
sg21
I19
sg22
I152055
sg23
F0.5789473684210527
sg24
g5
ssS'MARTIN AMANDA K'
p298
(dp299
g3
I1522
sg4
I85430
sg6
g5
sg7
I2070306
sg8
I8211
sg9
I8
sg10
I0
sg11
I00
sg12
g5
sg13
g5
sg14
I5145434
sg15
I349487
sg16
I8407016
sg17
g5
sg18
g5
sg19
I477
sg20
I2070306
sg21
I230
sg22
I2818454
sg23
F0.0
sg24
g5
ssS'BUY RICHARD B'
p300
(dp301
g3
I3523
sg4
I649584
sg6
I900000
sg7
I3444470
sg8
g5
sg9
I156
sg10
I71
sg11
I00
sg12
I-694862
sg13
I901657
sg14
I769862
sg15
I330546
sg16
I2355702
sg17
g5
sg18
g5
sg19
I2333
sg20
I2542813
sg21
I1053
sg22
I400572
sg23
F0.06742640075973409
sg24
g5
ssS'GRAMM WENDY L'
p302
(dp303
g3
g5
sg4
g5
sg6
g5
sg7
g5
sg8
g5
sg9
g5
sg10
g5
sg11
I00
sg12
g5
sg13
g5
sg14
g5
sg15
g5
sg16
I119292
sg17
g5
sg18
g5
sg19
g5
sg20
g5
sg21
g5
sg22
g5
sg23
g27
sg24
I119292
ssS'CAUSEY RICHARD A'
p304
(dp305
g3
I1892
sg4
g5
sg6
I1000000
sg7
I2502063
sg8
I30674
sg9
I58
sg10
I12
sg11
I01
sg12
I-235000
sg13
I2502063
sg14
I350000
sg15
I415189
sg16
I1868758
sg17
g5
sg18
g5
sg19
I1585
sg20
g5
sg21
I49
sg22
I307895
sg23
F0.24489795918367346
sg24
g5
ssS'TAYLOR MITCHELL S'
p306
(dp307
g3
I533
sg4
I227449
sg6
I600000
sg7
I3745048
sg8
g5
sg9
I0
sg10
I0
sg11
I00
sg12
g5
sg13
I563798
sg14
g5
sg15
I265214
sg16
I1092663
sg17
g5
sg18
g5
sg19
I300
sg20
I3181250
sg21
I29
sg22
g5
sg23
F0.0
sg24
g5
ssS'DONAHUE JR JEFFREY M'
p308
(dp309
g3
I865
sg4
g5
sg6
I800000
sg7
I1080988
sg8
I96268
sg9
I188
sg10
I11
sg11
I00
sg12
I-300000
sg13
I315068
sg14
g5
sg15
I278601
sg16
I875760
sg17
g5
sg18
g5
sg19
I772
sg20
I765920
sg21
I22
sg22
I891
sg23
F0.5
sg24
g5
ssS'GLISAN JR BEN F'
p310
(dp311
g3
I873
sg4
g5
sg6
I600000
sg7
I778546
sg8
I125978
sg9
I52
sg10
I6
sg11
I01
sg12
g5
sg13
I393818
sg14
I71023
sg15
I274975
sg16
I1272284
sg17
g5
sg18
g5
sg19
I874
sg20
I384728
sg21
I16
sg22
I200308
sg23
F0.375
sg24
g5
ss.