(lp0
S'poi'
p1
aS'to_messages'
p2
aS'bonus'
p3
aS'total_stock_value'
p4
aS'expenses'
p5
aS'from_poi_to_this_person'
p6
aS'restricted_stock'
p7
aS'long_term_incentive'
p8
aS'salary'
p9
aS'total_payments'
p10
aS'loan_advances'
p11
aS'shared_receipt_with_poi'
p12
aS'exercised_stock_options'
p13
aS'other'
p14
aS'to_poi_ratio'
p15
a.